; Function Attrs: mustprogress uwtable
define void @_ZN6google10NullStreamC2Ev(ptr noundef nonnull align 8 dereferenceable(91) initializes((0, 8)) %0, ptr noundef readonly captures(none) %1) unnamed_addr #0 align 2 personality ptr @__gxx_personality_v0 {
  %3 = load ptr, ptr %1, align 8
  store ptr %3, ptr %0, align 8, !tbaa !3
  %4 = getelementptr inbounds nuw i8, ptr %1, i64 40
  %5 = load ptr, ptr %4, align 8
  %6 = getelementptr i8, ptr %3, i64 -24
  %7 = load i64, ptr %6, align 8
  %8 = getelementptr inbounds i8, ptr %0, i64 %7
  store ptr %5, ptr %8, align 8, !tbaa !3
  %9 = getelementptr inbounds nuw i8, ptr %0, i64 88
  %10 = getelementptr inbounds nuw i8, ptr %1, i64 8
  %11 = getelementptr inbounds nuw i8, ptr %1, i64 16
  %12 = load ptr, ptr %11, align 8
  store ptr %12, ptr %0, align 8, !tbaa !3
  %13 = getelementptr inbounds nuw i8, ptr %1, i64 24
  %14 = load ptr, ptr %13, align 8
  %15 = getelementptr i8, ptr %12, i64 -24
  %16 = load i64, ptr %15, align 8
  %17 = getelementptr inbounds i8, ptr %0, i64 %16
  store ptr %14, ptr %17, align 8, !tbaa !3
  %18 = load ptr, ptr %0, align 8, !tbaa !3
  %19 = getelementptr i8, ptr %18, i64 -24
  %20 = load i64, ptr %19, align 8
  %21 = getelementptr inbounds i8, ptr %0, i64 %20
  tail call void @_ZNSt9basic_iosIcSt11char_traitsIcEE4initEPSt15basic_streambufIcS1_E(ptr noundef nonnull align 8 dereferenceable(264) %21, ptr noundef null)
  %22 = load ptr, ptr %10, align 8
  store ptr %22, ptr %0, align 8, !tbaa !3
  %23 = getelementptr inbounds nuw i8, ptr %1, i64 32
  %24 = load ptr, ptr %23, align 8
  %25 = getelementptr i8, ptr %22, i64 -24
  %26 = load i64, ptr %25, align 8
  %27 = getelementptr inbounds i8, ptr %0, i64 %26
  store ptr %24, ptr %27, align 8, !tbaa !3
  %28 = getelementptr inbounds nuw i8, ptr %0, i64 8
  store ptr getelementptr inbounds nuw inrange(-16, 112) (i8, ptr @_ZTVSt15basic_streambufIcSt11char_traitsIcEE, i64 16), ptr %28, align 8, !tbaa !3
  %29 = getelementptr inbounds nuw i8, ptr %0, i64 16
  %30 = getelementptr inbounds nuw i8, ptr %0, i64 64
  tail call void @llvm.memset.p0.i64(ptr noundef nonnull align 8 dereferenceable(48) %29, i8 0, i64 48, i1 false)
  tail call void @_ZNSt6localeC1Ev(ptr noundef nonnull align 8 dereferenceable(8) %30) #49
  store ptr getelementptr inbounds nuw inrange(-16, 112) (i8, ptr @_ZTVN6google12base_logging12LogStreamBufE, i64 16), ptr %28, align 8, !tbaa !3
  %31 = getelementptr inbounds nuw i8, ptr %0, i64 48
  store ptr %9, ptr %31, align 8, !tbaa !6
  %32 = getelementptr inbounds nuw i8, ptr %0, i64 40
  store ptr %9, ptr %32, align 8, !tbaa !13
  %33 = getelementptr inbounds nuw i8, ptr %0, i64 56
  store ptr %9, ptr %33, align 8, !tbaa !14
  %34 = getelementptr inbounds nuw i8, ptr %0, i64 72
  store i64 0, ptr %34, align 8, !tbaa !15
  %35 = getelementptr inbounds nuw i8, ptr %0, i64 80
  store ptr %0, ptr %35, align 8, !tbaa !21
  %36 = load ptr, ptr %0, align 8, !tbaa !3
  %37 = getelementptr i8, ptr %36, i64 -24
  %38 = load i64, ptr %37, align 8
  %39 = getelementptr inbounds i8, ptr %0, i64 %38
  %40 = invoke noundef ptr @_ZNSt9basic_iosIcSt11char_traitsIcEE5rdbufEPSt15basic_streambufIcS1_E(ptr noundef nonnull align 8 dereferenceable(264) %39, ptr noundef nonnull %28)
          to label %_ZN6google10LogMessage9LogStreamC2EPcil.exit unwind label %41

41:                                               ; preds = %2
  %42 = landingpad { ptr, i32 }
          cleanup
  store ptr getelementptr inbounds nuw inrange(-16, 112) (i8, ptr @_ZTVSt15basic_streambufIcSt11char_traitsIcEE, i64 16), ptr %28, align 8, !tbaa !3
  tail call void @_ZNSt6localeD1Ev(ptr noundef nonnull align 8 dereferenceable(8) %30) #49
  resume { ptr, i32 } %42

_ZN6google10LogMessage9LogStreamC2EPcil.exit:     ; preds = %2
  %43 = load ptr, ptr %1, align 8
  store ptr %43, ptr %0, align 8, !tbaa !3
  %44 = load ptr, ptr %4, align 8
  %45 = getelementptr i8, ptr %43, i64 -24
  %46 = load i64, ptr %45, align 8
  %47 = getelementptr inbounds i8, ptr %0, i64 %46
  store ptr %44, ptr %47, align 8, !tbaa !3
  ret void
}